target datalayout = "e-m:e-p270:32:32-p271:32:32-p272:64:64-i64:64-i128:128-f80:128-n8:16:32:64-S128"
target triple = "x86_64-unknown-linux-gnu"

@_ZN2EA6Thread9ConditionC1EPKNS0_19ConditionParametersEb = dso_local unnamed_addr alias void (ptr, ptr, i1), ptr @_ZN2EA6Thread9ConditionC2EPKNS0_19ConditionParametersEb

; Function Attrs: mustprogress uwtable
define dso_local noundef ptr @_ZN2EA6Thread16ConditionFactory15CreateConditionEv() #3 align 2 personality ptr @__gxx_personality_v0 {
entry:
  %retval = alloca ptr, align 8
  %pAllocator = alloca ptr, align 8
  %exn.slot = alloca ptr, align 8
  %ehselector.slot = alloca i32, align 4
  %call = call noundef ptr @_ZN2EA6Thread12GetAllocatorEv()
  store ptr %call, ptr %pAllocator, align 8
  %0 = load ptr, ptr %pAllocator, align 8
  %tobool = icmp ne ptr %0, null
  br i1 %tobool, label %if.then, label %if.else

if.then:                                          ; preds = %entry
  %1 = load ptr, ptr %pAllocator, align 8
  %vtable = load ptr, ptr %1, align 8
  %vfn = getelementptr inbounds ptr, ptr %vtable, i64 2
  %2 = load ptr, ptr %vfn, align 8
  %call1 = call noundef ptr %2(ptr noundef nonnull align 8 dereferenceable(8) %1, i64 noundef 48, ptr noundef null, i32 noundef 0)
  call void @_ZN2EA6Thread9ConditionC1EPKNS0_19ConditionParametersEb(ptr noundef nonnull align 8 dereferenceable(48) %call1, ptr noundef null, i1 noundef zeroext true)
  store ptr %call1, ptr %retval, align 8
  br label %return

if.else:                                          ; preds = %entry
  %call2 = call noalias noundef nonnull ptr @_Znwm(i64 noundef 48) #9
  invoke void @_ZN2EA6Thread9ConditionC1EPKNS0_19ConditionParametersEb(ptr noundef nonnull align 8 dereferenceable(48) %call2, ptr noundef null, i1 noundef zeroext true)
          to label %invoke.cont unwind label %lpad

invoke.cont:                                      ; preds = %if.else
  store ptr %call2, ptr %retval, align 8
  br label %return

lpad:                                             ; preds = %if.else
  %3 = landingpad { ptr, i32 }
          cleanup
  %4 = extractvalue { ptr, i32 } %3, 0
  store ptr %4, ptr %exn.slot, align 8
  %5 = extractvalue { ptr, i32 } %3, 1
  store i32 %5, ptr %ehselector.slot, align 4
  call void @_ZdlPv(ptr noundef %call2) #10
  br label %eh.resume

return:                                           ; preds = %invoke.cont, %if.then
  %6 = load ptr, ptr %retval, align 8
  ret ptr %6

eh.resume:                                        ; preds = %lpad
  %exn = load ptr, ptr %exn.slot, align 8
  %sel = load i32, ptr %ehselector.slot, align 4
  %lpad.val = insertvalue { ptr, i32 } poison, ptr %exn, 0
  %lpad.val3 = insertvalue { ptr, i32 } %lpad.val, i32 %sel, 1
  resume { ptr, i32 } %lpad.val3
}