; Function Attrs: mustprogress uwtable
define dso_local noundef ptr @_ZN2EA6Thread16ConditionFactory15CreateConditionEv() local_unnamed_addr #4 align 2 personality ptr @__gxx_personality_v0 {
entry:
  %cattr.i6.i2 = alloca %union.pthread_condattr_t, align 4
  %cattr.i6.i = alloca %union.pthread_condattr_t, align 4
  %call = tail call noundef ptr @_ZN2EA6Thread12GetAllocatorEv()
  %tobool.not = icmp eq ptr %call, null
  br i1 %tobool.not, label %if.else, label %if.then

if.then:                                          ; preds = %entry
  %vtable = load ptr, ptr %call, align 8
  %vfn = getelementptr inbounds nuw i8, ptr %vtable, i64 16
  %0 = load ptr, ptr %vfn, align 8
  %call1 = tail call noundef ptr %0(ptr noundef nonnull align 8 dereferenceable(8) %call, i64 noundef 48, ptr noundef null, i32 noundef 0)
  tail call void @llvm.memset.p0.i64(ptr noundef nonnull align 8 dereferenceable(48) %call1, i8 0, i64 48, i1 false)
  call void @llvm.lifetime.start.p0(i64 4, ptr nonnull %cattr.i6.i)
  %call.i9.i = call i32 @pthread_condattr_init(ptr noundef nonnull %cattr.i6.i) #10
  %call5.i11.i = call i32 @pthread_condattr_setpshared(ptr noundef nonnull %cattr.i6.i, i32 noundef 0) #10
  %call6.i12.i = call i32 @pthread_cond_init(ptr noundef nonnull align 8 dereferenceable(48) %call1, ptr noundef nonnull %cattr.i6.i) #10
  %call7.i13.i = call i32 @pthread_condattr_destroy(ptr noundef nonnull %cattr.i6.i) #10
  call void @llvm.lifetime.end.p0(i64 4, ptr nonnull %cattr.i6.i)
  br label %return

if.else:                                          ; preds = %entry
  %call2 = tail call noalias noundef nonnull dereferenceable(48) ptr @_Znwm(i64 noundef 48) #11
  tail call void @llvm.memset.p0.i64(ptr noundef nonnull align 8 dereferenceable(48) %call2, i8 0, i64 48, i1 false)
  call void @llvm.lifetime.start.p0(i64 4, ptr nonnull %cattr.i6.i2)
  %call.i9.i3 = call i32 @pthread_condattr_init(ptr noundef nonnull %cattr.i6.i2) #10
  %call5.i11.i4 = call i32 @pthread_condattr_setpshared(ptr noundef nonnull %cattr.i6.i2, i32 noundef 0) #10
  %call6.i12.i5 = call i32 @pthread_cond_init(ptr noundef nonnull align 8 dereferenceable(48) %call2, ptr noundef nonnull %cattr.i6.i2) #10
  %call7.i13.i6 = call i32 @pthread_condattr_destroy(ptr noundef nonnull %cattr.i6.i2) #10
  call void @llvm.lifetime.end.p0(i64 4, ptr nonnull %cattr.i6.i2)
  br label %return

return:                                           ; preds = %if.else, %if.then
  %retval.0 = phi ptr [ %call1, %if.then ], [ %call2, %if.else ]
  ret ptr %retval.0
}